; Function Attrs: nounwind uwtable
define internal fastcc void @Io_NtkWrite(ptr noundef nonnull captures(none) %0, ptr noundef %1, i32 noundef %2, i32 noundef %3, i32 noundef %4) unnamed_addr #0 {
  %6 = getelementptr i8, ptr %1, i64 8
  %.val = load ptr, ptr %6, align 8
  %7 = tail call i32 (ptr, ptr, ...) @fprintf(ptr noundef nonnull %0, ptr noundef nonnull @.str.71, ptr noundef %.val) #10
  tail call fastcc void @Io_NtkWriteOne(ptr noundef %0, ptr noundef %1, i32 noundef %2, i32 noundef %3, i32 noundef %4)
  %8 = getelementptr i8, ptr %1, i64 328
  %.val16 = load ptr, ptr %8, align 8
  %.not = icmp eq ptr %.val16, null
  br i1 %.not, label %11, label %9

9:                                                ; preds = %5
  %fputc = tail call i32 @fputc(i32 10, ptr nonnull %0)
  %10 = tail call i64 @fwrite(ptr nonnull @.str.74, i64 6, i64 1, ptr nonnull %0)
  tail call fastcc void @Io_NtkWriteOne(ptr noundef %0, ptr noundef nonnull %.val16, i32 noundef %2, i32 noundef %3, i32 noundef %4)
  br label %11

11:                                               ; preds = %9, %5
  %12 = tail call i64 @fwrite(ptr nonnull @.str.65, i64 5, i64 1, ptr nonnull %0)
  ret void
}